#include <math.h>
#include <stdio.h>
#include <stdlib.h>
#include <string.h>

int main()
{
   int n,i=0,a,m=0;
   scanf("%d\n",&n);
   for(i=0;i<n;i++)
   {
    scanf("%d\n",&a);
    double sz[100],sum=0,q,w=0,e;
     for(m=0;m<a;m++)
    {scanf("%lf",&sz[m]);
     sum+=sz[m];
     }
    q=sum/a;
    for(m=0;m<a;m++)
    {w+=(sz[m]-q)*(sz[m]-q);}
    e=sqrt(w/a);
    printf("%.5lf\n",e);
    }
return 0;
}
