; ModuleID = '38/1559.c'
source_filename = "38/1559.c"
target datalayout = "e-m:e-p270:32:32-p271:32:32-p272:64:64-i64:64-f80:128-n8:16:32:64-S128"
target triple = "x86_64-pc-linux-gnu"

@.str = private unnamed_addr constant [4 x i8] c"%d\0A\00", align 1
@.str.1 = private unnamed_addr constant [4 x i8] c"%lf\00", align 1
@.str.2 = private unnamed_addr constant [7 x i8] c"%.5lf\0A\00", align 1

; Function Attrs: noinline nounwind uwtable
define dso_local i32 @main() #0 {
  %1 = alloca i32, align 4
  %2 = alloca i32, align 4
  %3 = alloca i32, align 4
  %4 = alloca i32, align 4
  %5 = alloca i32, align 4
  %6 = alloca [100 x double], align 16
  %7 = alloca double, align 8
  %8 = alloca double, align 8
  %9 = alloca double, align 8
  %10 = alloca double, align 8
  store i32 0, i32* %1, align 4
  store i32 0, i32* %3, align 4
  store i32 0, i32* %5, align 4
  %11 = call i32 (i8*, ...) @__isoc99_scanf(i8* getelementptr inbounds ([4 x i8], [4 x i8]* @.str, i64 0, i64 0), i32* %2)
  store i32 0, i32* %3, align 4
  br label %12

12:                                               ; preds = %72, %0
  %13 = load i32, i32* %3, align 4
  %14 = load i32, i32* %2, align 4
  %15 = icmp slt i32 %13, %14
  br i1 %15, label %16, label %75

16:                                               ; preds = %12
  %17 = call i32 (i8*, ...) @__isoc99_scanf(i8* getelementptr inbounds ([4 x i8], [4 x i8]* @.str, i64 0, i64 0), i32* %4)
  store double 0.000000e+00, double* %7, align 8
  store double 0.000000e+00, double* %9, align 8
  store i32 0, i32* %5, align 4
  br label %18

18:                                               ; preds = %33, %16
  %19 = load i32, i32* %5, align 4
  %20 = load i32, i32* %4, align 4
  %21 = icmp slt i32 %19, %20
  br i1 %21, label %22, label %36

22:                                               ; preds = %18
  %23 = load i32, i32* %5, align 4
  %24 = sext i32 %23 to i64
  %25 = getelementptr inbounds [100 x double], [100 x double]* %6, i64 0, i64 %24
  %26 = call i32 (i8*, ...) @__isoc99_scanf(i8* getelementptr inbounds ([4 x i8], [4 x i8]* @.str.1, i64 0, i64 0), double* %25)
  %27 = load i32, i32* %5, align 4
  %28 = sext i32 %27 to i64
  %29 = getelementptr inbounds [100 x double], [100 x double]* %6, i64 0, i64 %28
  %30 = load double, double* %29, align 8
  %31 = load double, double* %7, align 8
  %32 = fadd double %31, %30
  store double %32, double* %7, align 8
  br label %33

33:                                               ; preds = %22
  %34 = load i32, i32* %5, align 4
  %35 = add nsw i32 %34, 1
  store i32 %35, i32* %5, align 4
  br label %18

36:                                               ; preds = %18
  %37 = load double, double* %7, align 8
  %38 = load i32, i32* %4, align 4
  %39 = sitofp i32 %38 to double
  %40 = fdiv double %37, %39
  store double %40, double* %8, align 8
  store i32 0, i32* %5, align 4
  br label %41

41:                                               ; preds = %61, %36
  %42 = load i32, i32* %5, align 4
  %43 = load i32, i32* %4, align 4
  %44 = icmp slt i32 %42, %43
  br i1 %44, label %45, label %64

45:                                               ; preds = %41
  %46 = load i32, i32* %5, align 4
  %47 = sext i32 %46 to i64
  %48 = getelementptr inbounds [100 x double], [100 x double]* %6, i64 0, i64 %47
  %49 = load double, double* %48, align 8
  %50 = load double, double* %8, align 8
  %51 = fsub double %49, %50
  %52 = load i32, i32* %5, align 4
  %53 = sext i32 %52 to i64
  %54 = getelementptr inbounds [100 x double], [100 x double]* %6, i64 0, i64 %53
  %55 = load double, double* %54, align 8
  %56 = load double, double* %8, align 8
  %57 = fsub double %55, %56
  %58 = fmul double %51, %57
  %59 = load double, double* %9, align 8
  %60 = fadd double %59, %58
  store double %60, double* %9, align 8
  br label %61

61:                                               ; preds = %45
  %62 = load i32, i32* %5, align 4
  %63 = add nsw i32 %62, 1
  store i32 %63, i32* %5, align 4
  br label %41

64:                                               ; preds = %41
  %65 = load double, double* %9, align 8
  %66 = load i32, i32* %4, align 4
  %67 = sitofp i32 %66 to double
  %68 = fdiv double %65, %67
  %69 = call double @sqrt(double %68) #3
  store double %69, double* %10, align 8
  %70 = load double, double* %10, align 8
  %71 = call i32 (i8*, ...) @printf(i8* getelementptr inbounds ([7 x i8], [7 x i8]* @.str.2, i64 0, i64 0), double %70)
  br label %72

72:                                               ; preds = %64
  %73 = load i32, i32* %3, align 4
  %74 = add nsw i32 %73, 1
  store i32 %74, i32* %3, align 4
  br label %12

75:                                               ; preds = %12
  ret i32 0
}

declare dso_local i32 @__isoc99_scanf(i8*, ...) #1

; Function Attrs: nounwind
declare dso_local double @sqrt(double) #2

declare dso_local i32 @printf(i8*, ...) #1


!llvm.module.flags = !{!0}
!llvm.ident = !{!1}

!0 = !{i32 1, !"wchar_size", i32 4}
!1 = !{!"clang version 10.0.0-4ubuntu1 "}
